target datalayout = "e-m:e-p270:32:32-p271:32:32-p272:64:64-i64:64-i128:128-f80:128-n8:16:32:64-S128"
target triple = "x86_64-pc-linux-gnu"

%struct.slurmctld_resv = type { i16, ptr, i32, ptr, ptr, i32, ptr, ptr, i32, ptr, i32, ptr, i32, i64, i64, ptr, i64, ptr, ptr, i32, i32, ptr, ptr, i32, ptr, ptr, i32, ptr, ptr, ptr, i32, i32, i64, i64, i64, i64, ptr, ptr, ptr, i32, ptr }
%struct.resv_desc_msg = type { ptr, ptr, ptr, i32, i32, i64, ptr, i64, ptr, ptr, ptr, i32, ptr, i32, ptr, ptr, i32, i64, i64, ptr, ptr }

@resv_list = dso_local global ptr null, align 8

; Function Attrs: nounwind uwtable
define internal zeroext i1 @_resv_overlap(ptr noundef %0, ptr noundef %1, ptr noundef %2) #0 {
  %4 = alloca i1, align 1
  %5 = alloca ptr, align 8
  %6 = alloca ptr, align 8
  %7 = alloca ptr, align 8
  %8 = alloca ptr, align 8
  %9 = alloca ptr, align 8
  %10 = alloca i8, align 1
  %11 = alloca i32, align 4
  store ptr %0, ptr %5, align 8
  store ptr %1, ptr %6, align 8
  store ptr %2, ptr %7, align 8
  call void @llvm.lifetime.start.p0(i64 8, ptr %8) #10
  call void @llvm.lifetime.start.p0(i64 8, ptr %9) #10
  call void @llvm.lifetime.start.p0(i64 1, ptr %10) #10
  store i8 0, ptr %10, align 1
  %12 = load ptr, ptr %5, align 8
  %13 = getelementptr inbounds nuw %struct.resv_desc_msg, ptr %12, i32 0, i32 7
  %14 = load i64, ptr %13, align 8
  %15 = and i64 %14, 1
  %16 = icmp ne i64 %15, 0
  br i1 %16, label %26, label %17

17:                                               ; preds = %3
  %18 = load ptr, ptr %5, align 8
  %19 = getelementptr inbounds nuw %struct.resv_desc_msg, ptr %18, i32 0, i32 7
  %20 = load i64, ptr %19, align 8
  %21 = and i64 %20, 16384
  %22 = icmp ne i64 %21, 0
  br i1 %22, label %26, label %23

23:                                               ; preds = %17
  %24 = load ptr, ptr %6, align 8
  %25 = icmp ne ptr %24, null
  br i1 %25, label %29, label %26

26:                                               ; preds = %23, %17, %3
  %27 = load i8, ptr %10, align 1, !range !11, !noundef !12
  %28 = trunc i8 %27 to i1
  store i1 %28, ptr %4, align 1
  store i32 1, ptr %11, align 4
  br label %85

29:                                               ; preds = %23
  %30 = load ptr, ptr @resv_list, align 8
  %31 = call ptr @list_iterator_create(ptr noundef %30)
  store ptr %31, ptr %8, align 8
  br label %32

32:                                               ; preds = %80, %74, %67, %59, %46, %40, %29
  %33 = load ptr, ptr %8, align 8
  %34 = call ptr @list_next(ptr noundef %33)
  store ptr %34, ptr %9, align 8
  %35 = icmp ne ptr %34, null
  br i1 %35, label %36, label %81

36:                                               ; preds = %32
  %37 = load ptr, ptr %9, align 8
  %38 = load ptr, ptr %7, align 8
  %39 = icmp eq ptr %37, %38
  br i1 %39, label %40, label %41

40:                                               ; preds = %36
  br label %32, !llvm.loop !19

41:                                               ; preds = %36
  %42 = load ptr, ptr %9, align 8
  %43 = getelementptr inbounds nuw %struct.slurmctld_resv, ptr %42, i32 0, i32 25
  %44 = load ptr, ptr %43, align 8
  %45 = icmp eq ptr %44, null
  br i1 %45, label %46, label %47

46:                                               ; preds = %41
  br label %32, !llvm.loop !19

47:                                               ; preds = %41
  %48 = load ptr, ptr %9, align 8
  %49 = getelementptr inbounds nuw %struct.slurmctld_resv, ptr %48, i32 0, i32 16
  %50 = load i64, ptr %49, align 8
  %51 = and i64 %50, 1
  %52 = icmp ne i64 %51, 0
  br i1 %52, label %59, label %53

53:                                               ; preds = %47
  %54 = load ptr, ptr %9, align 8
  %55 = getelementptr inbounds nuw %struct.slurmctld_resv, ptr %54, i32 0, i32 16
  %56 = load i64, ptr %55, align 8
  %57 = and i64 %56, 16384
  %58 = icmp ne i64 %57, 0
  br i1 %58, label %59, label %60

59:                                               ; preds = %53, %47
  br label %32, !llvm.loop !19

60:                                               ; preds = %53
  %61 = load ptr, ptr %9, align 8
  %62 = getelementptr inbounds nuw %struct.slurmctld_resv, ptr %61, i32 0, i32 25
  %63 = load ptr, ptr %62, align 8
  %64 = load ptr, ptr %6, align 8
  %65 = call i32 @bit_overlap_any(ptr noundef %63, ptr noundef %64)
  %66 = icmp ne i32 %65, 0
  br i1 %66, label %68, label %67

67:                                               ; preds = %60
  br label %32, !llvm.loop !19

68:                                               ; preds = %60
  %69 = load ptr, ptr %9, align 8
  %70 = getelementptr inbounds nuw %struct.slurmctld_resv, ptr %69, i32 0, i32 8
  %71 = load i32, ptr %70, align 8
  %72 = and i32 %71, 4
  %73 = icmp ne i32 %72, 0
  br i1 %73, label %75, label %74

74:                                               ; preds = %68
  br label %32, !llvm.loop !19

75:                                               ; preds = %68
  %76 = load ptr, ptr %5, align 8
  %77 = load ptr, ptr %9, align 8
  %78 = call zeroext i1 @_resv_time_overlap(ptr noundef %76, ptr noundef %77)
  br i1 %78, label %79, label %80

79:                                               ; preds = %75
  store i8 1, ptr %10, align 1
  br label %81

80:                                               ; preds = %75
  br label %32, !llvm.loop !19

81:                                               ; preds = %79, %32
  %82 = load ptr, ptr %8, align 8
  call void @list_iterator_destroy(ptr noundef %82)
  %83 = load i8, ptr %10, align 1, !range !11, !noundef !12
  %84 = trunc i8 %83 to i1
  store i1 %84, ptr %4, align 1
  store i32 1, ptr %11, align 4
  br label %85

85:                                               ; preds = %81, %26
  call void @llvm.lifetime.end.p0(i64 1, ptr %10) #10
  call void @llvm.lifetime.end.p0(i64 8, ptr %9) #10
  call void @llvm.lifetime.end.p0(i64 8, ptr %8) #10
  %86 = load i1, ptr %4, align 1
  ret i1 %86
}