; Function Attrs: nounwind uwtable
define internal fastcc noundef zeroext i1 @_resv_overlap(ptr noundef readonly captures(none) %0, ptr noundef %1, ptr noundef readnone captures(address) %2) unnamed_addr #0 {
  %4 = getelementptr inbounds nuw i8, ptr %0, i64 48
  %5 = load i64, ptr %4, align 8
  %6 = and i64 %5, 1
  %.not = icmp eq i64 %6, 0
  br i1 %.not, label %7, label %34

7:                                                ; preds = %3
  %8 = and i64 %5, 16384
  %9 = icmp eq i64 %8, 0
  %10 = icmp ne ptr %1, null
  %or.cond = and i1 %10, %9
  br i1 %or.cond, label %11, label %34

11:                                               ; preds = %7
  %12 = load ptr, ptr @resv_list, align 8
  %13 = tail call ptr @list_iterator_create(ptr noundef %12) #19
  %14 = tail call ptr @list_next(ptr noundef %13) #19
  %.not2228.not = icmp eq ptr %14, null
  br i1 %.not2228.not, label %._crit_edge, label %.lr.ph

.lr.ph:                                           ; preds = %11, %.backedge
  %15 = phi ptr [ %17, %.backedge ], [ %14, %11 ]
  %16 = icmp eq ptr %15, %2
  br i1 %16, label %.backedge, label %18

.backedge:                                        ; preds = %.lr.ph, %18, %26, %28, %32, %22
  %17 = tail call ptr @list_next(ptr noundef %13) #19
  %.not22.not = icmp eq ptr %17, null
  br i1 %.not22.not, label %._crit_edge, label %.lr.ph, !llvm.loop !19

18:                                               ; preds = %.lr.ph
  %19 = getelementptr inbounds nuw i8, ptr %15, i64 192
  %20 = load ptr, ptr %19, align 8
  %21 = icmp eq ptr %20, null
  br i1 %21, label %.backedge, label %22

22:                                               ; preds = %18
  %23 = getelementptr inbounds nuw i8, ptr %15, i64 128
  %24 = load i64, ptr %23, align 8
  %25 = and i64 %24, 16385
  %or.cond27 = icmp eq i64 %25, 0
  br i1 %or.cond27, label %26, label %.backedge

26:                                               ; preds = %22
  %27 = tail call i32 @bit_overlap_any(ptr noundef nonnull %20, ptr noundef nonnull %1) #19
  %.not25 = icmp eq i32 %27, 0
  br i1 %.not25, label %.backedge, label %28

28:                                               ; preds = %26
  %29 = getelementptr inbounds nuw i8, ptr %15, i64 64
  %30 = load i32, ptr %29, align 8
  %31 = and i32 %30, 4
  %.not26 = icmp eq i32 %31, 0
  br i1 %.not26, label %.backedge, label %32

32:                                               ; preds = %28
  %33 = tail call fastcc zeroext i1 @_resv_time_overlap(ptr noundef %0, ptr noundef %15)
  br i1 %33, label %._crit_edge, label %.backedge

._crit_edge:                                      ; preds = %.backedge, %32, %11
  %.not22.lcssa = phi i1 [ false, %11 ], [ true, %32 ], [ false, %.backedge ]
  tail call void @list_iterator_destroy(ptr noundef %13) #19
  br label %34

34:                                               ; preds = %3, %7, %._crit_edge
  %.018 = phi i1 [ %.not22.lcssa, %._crit_edge ], [ false, %7 ], [ false, %3 ]
  ret i1 %.018
}